    Data:
        Version: 3 (0x2)
        Serial Number: 10 (0xa)
    Signature Algorithm: md5WithRSAEncryption
        Issuer: C=US, ST=CA, L=SanDiego, O=Tealium, OU=OpenVPN Server, CN=Tealium CA/emailAddress=devops@tealiom.com
        Validity
            Not Before: May 10 17:32:46 2013 GMT
            Not After : May  8 17:32:46 2023 GMT
        Subject: C=US, ST=California, L=San Diego, O=Tealium, OU=DevOps, CN=Jason Bain/emailAddress=jason.bain@tealium.com
        Subject Public Key Info:
            Public Key Algorithm: rsaEncryption
                Public-Key: (1024 bit)
                Modulus:
                    00:fa:03:6b:93:98:ba:a6:33:75:c0:be:25:73:94:
                    89:13:0f:c1:25:d5:78:ac:3f:8f:f7:f9:6f:76:97:
                    e0:24:ea:53:9e:a1:e6:a8:cf:c7:2f:c4:43:5a:2f:
                    19:7d:c1:eb:56:cc:44:20:bc:2e:f6:73:20:d3:2d:
                    db:54:eb:48:a5:29:14:1e:82:ff:86:d4:14:f7:76:
                    b2:19:4f:d8:88:14:20:37:8c:80:b7:d0:ea:8e:a0:
                    9c:f0:da:de:65:49:60:ed:20:7a:b7:80:2b:03:f5:
                    56:e9:de:e2:2c:5d:cd:69:8e:52:f3:3b:54:9a:f7:
                    e7:a5:ea:25:c5:e6:c4:86:53
                Exponent: 65537 (0x10001)
        X509v3 extensions:
            X509v3 Basic Constraints: 
                CA:FALSE
            Netscape Comment: 
                Easy-RSA Generated Certificate
            X509v3 Subject Key Identifier: 
                8E:4D:94:D1:92:F7:09:41:7C:8F:59:59:DC:09:B9:27:31:21:C6:D7
            X509v3 Authority Key Identifier: 
                keyid:56:F1:DA:5F:A8:86:2E:FD:00:66:AC:BA:1D:D8:7C:45:E6:C8:D0:E0
                DirName:/C=US/ST=CA/L=SanDiego/O=Tealium/OU=OpenVPN Server/CN=Tealium CA/emailAddress=devops@tealiom.com
                serial:F3:79:27:68:43:D7:A6:9C

            X509v3 Extended Key Usage: 
                TLS Web Client Authentication
            X509v3 Key Usage: 
                Digital Signature
    Signature Algorithm: md5WithRSAEncryption
         2c:44:64:bf:79:c9:12:48:b9:50:65:4e:27:bd:12:b8:72:f8:
         58:1e:73:71:e4:aa:75:57:a8:5d:2c:9a:ec:5f:af:9c:f2:ea:
         6a:c2:e9:4a:62:ff:e0:23:d0:65:2d:57:ad:28:6f:d9:d1:2d:
         a1:aa:7a:c8:72:ed:de:bb:28:de:84:71:67:0e:f4:71:e4:91:
         6f:aa:b7:dd:f9:2e:18:fe:f3:ee:24:06:32:6b:fd:b2:d1:97:
         26:ef:a7:58:a7:06:69:88:a3:2d:fb:54:32:02:47:c9:08:c4:
         7c:ac:b0:9d:91:98:f6:22:9c:11:75:18:ea:01:41:5f:e9:b3:
         08:59
-----BEGIN CERTIFICATE-----
MIID5jCCA0+gAwIBAgIBCjANBgkqhkiG9w0BAQQFADCBkDELMAkGA1UEBhMCVVMx
CzAJBgNVBAgTAkNBMREwDwYDVQQHEwhTYW5EaWVnbzEQMA4GA1UEChMHVGVhbGl1
bTEXMBUGA1UECxMOT3BlblZQTiBTZXJ2ZXIxEzARBgNVBAMTClRlYWxpdW0gQ0Ex
ITAfBgkqhkiG9w0BCQEWEmRldm9wc0B0ZWFsaW9tLmNvbTAeFw0xMzA1MTAxNzMy
NDZaFw0yMzA1MDgxNzMyNDZaMIGVMQswCQYDVQQGEwJVUzETMBEGA1UECBMKQ2Fs
aWZvcm5pYTESMBAGA1UEBxMJU2FuIERpZWdvMRAwDgYDVQQKEwdUZWFsaXVtMQ8w
DQYDVQQLEwZEZXZPcHMxEzARBgNVBAMTCkphc29uIEJhaW4xJTAjBgkqhkiG9w0B
CQEWFmphc29uLmJhaW5AdGVhbGl1bS5jb20wgZ8wDQYJKoZIhvcNAQEBBQADgY0A
MIGJAoGBAPoDa5OYuqYzdcC+JXOUiRMPwSXVeKw/j/f5b3aX4CTqU56h5qjPxy/E
Q1ovGX3B61bMRCC8LvZzINMt21TrSKUpFB6C/4bUFPd2shlP2IgUIDeMgLfQ6o6g
nPDa3mVJYO0gereAKwP1Vune4ixdzWmOUvM7VJr356XqJcXmxIZTAgMBAAGjggFH
MIIBQzAJBgNVHRMEAjAAMC0GCWCGSAGG+EIBDQQgFh5FYXN5LVJTQSBHZW5lcmF0
ZWQgQ2VydGlmaWNhdGUwHQYDVR0OBBYEFI5NlNGS9wlBfI9ZWdwJuScxIcbXMIHF
BgNVHSMEgb0wgbqAFFbx2l+ohi79AGasuh3YfEXmyNDgoYGWpIGTMIGQMQswCQYD
VQQGEwJVUzELMAkGA1UECBMCQ0ExETAPBgNVBAcTCFNhbkRpZWdvMRAwDgYDVQQK
EwdUZWFsaXVtMRcwFQYDVQQLEw5PcGVuVlBOIFNlcnZlcjETMBEGA1UEAxMKVGVh
bGl1bSBDQTEhMB8GCSqGSIb3DQEJARYSZGV2b3BzQHRlYWxpb20uY29tggkA83kn
aEPXppwwEwYDVR0lBAwwCgYIKwYBBQUHAwIwCwYDVR0PBAQDAgeAMA0GCSqGSIb3
DQEBBAUAA4GBACxEZL95yRJIuVBlTie9Erhy+Fgec3HkqnVXqF0smuxfr5zy6mrC
6Upi/+Aj0GUtV60ob9nRLaGqeshy7d67KN6EcWcO9HHkkW+qt935Lhj+8+4kBjJr
/bLRlybvp1inBmmIoy37VDICR8kIxHyssJ2RmPYinBF1GOoBQV/pswhZ
-----END CERTIFICATE-----
